target datalayout = "e-m:e-p270:32:32-p271:32:32-p272:64:64-i64:64-i128:128-f80:128-n8:16:32:64-S128"
target triple = "x86_64-pc-linux-gnu"

%struct.evp_pkey_ctx_st = type { i32, ptr, ptr, ptr, ptr, %union.anon, %struct.anon.4, ptr, ptr, ptr, i32, i32, ptr, ptr, ptr, ptr, ptr, i8, ptr }
%union.anon = type { %struct.anon.0 }
%struct.anon.0 = type { ptr, ptr }
%struct.anon.4 = type { ptr, ptr, i64, i8 }
%struct.anon.1 = type { ptr, ptr }
%struct.anon.2 = type { ptr, ptr }
%struct.anon = type { ptr }
%struct.anon.3 = type { ptr, ptr }
%struct.CRYPTO_REF_COUNT = type { i32 }
%struct.evp_signature_st = type { i32, ptr, ptr, ptr, %struct.CRYPTO_REF_COUNT, ptr, ptr, ptr, ptr, ptr, ptr, ptr, ptr, ptr, ptr, ptr, ptr, ptr, ptr, ptr, ptr, ptr, ptr, ptr, ptr, ptr, ptr, ptr, ptr, ptr, ptr, ptr, ptr, ptr, ptr, ptr, ptr }
%struct.evp_keyexch_st = type { i32, ptr, ptr, ptr, %struct.CRYPTO_REF_COUNT, ptr, ptr, ptr, ptr, ptr, ptr, ptr, ptr, ptr, ptr }
%struct.evp_kem_st = type { i32, ptr, ptr, ptr, %struct.CRYPTO_REF_COUNT, ptr, ptr, ptr, ptr, ptr, ptr, ptr, ptr, ptr, ptr, ptr, ptr, ptr }
%struct.evp_asym_cipher_st = type { i32, ptr, ptr, ptr, %struct.CRYPTO_REF_COUNT, ptr, ptr, ptr, ptr, ptr, ptr, ptr, ptr, ptr, ptr, ptr }

; Function Attrs: nounwind uwtable
define void @evp_pkey_ctx_free_old_ops(ptr noundef %0) #0 {
  %2 = alloca ptr, align 8
  store ptr %0, ptr %2, align 8, !tbaa !18
  %3 = load ptr, ptr %2, align 8, !tbaa !18
  %4 = getelementptr inbounds nuw %struct.evp_pkey_ctx_st, ptr %3, i32 0, i32 0
  %5 = load i32, ptr %4, align 8, !tbaa !20
  %6 = and i32 %5, 49648
  %7 = icmp ne i32 %6, 0
  br i1 %7, label %8, label %42

8:                                                ; preds = %1
  %9 = load ptr, ptr %2, align 8, !tbaa !18
  %10 = getelementptr inbounds nuw %struct.evp_pkey_ctx_st, ptr %9, i32 0, i32 5
  %11 = getelementptr inbounds nuw %struct.anon.1, ptr %10, i32 0, i32 1
  %12 = load ptr, ptr %11, align 8, !tbaa !31
  %13 = icmp ne ptr %12, null
  br i1 %13, label %14, label %31

14:                                               ; preds = %8
  %15 = load ptr, ptr %2, align 8, !tbaa !18
  %16 = getelementptr inbounds nuw %struct.evp_pkey_ctx_st, ptr %15, i32 0, i32 5
  %17 = getelementptr inbounds nuw %struct.anon.1, ptr %16, i32 0, i32 0
  %18 = load ptr, ptr %17, align 8, !tbaa !31
  %19 = icmp ne ptr %18, null
  br i1 %19, label %20, label %31

20:                                               ; preds = %14
  %21 = load ptr, ptr %2, align 8, !tbaa !18
  %22 = getelementptr inbounds nuw %struct.evp_pkey_ctx_st, ptr %21, i32 0, i32 5
  %23 = getelementptr inbounds nuw %struct.anon.1, ptr %22, i32 0, i32 0
  %24 = load ptr, ptr %23, align 8, !tbaa !31
  %25 = getelementptr inbounds nuw %struct.evp_signature_st, ptr %24, i32 0, i32 26
  %26 = load ptr, ptr %25, align 8, !tbaa !58
  %27 = load ptr, ptr %2, align 8, !tbaa !18
  %28 = getelementptr inbounds nuw %struct.evp_pkey_ctx_st, ptr %27, i32 0, i32 5
  %29 = getelementptr inbounds nuw %struct.anon.1, ptr %28, i32 0, i32 1
  %30 = load ptr, ptr %29, align 8, !tbaa !31
  call void %26(ptr noundef %30)
  br label %31

31:                                               ; preds = %20, %14, %8
  %32 = load ptr, ptr %2, align 8, !tbaa !18
  %33 = getelementptr inbounds nuw %struct.evp_pkey_ctx_st, ptr %32, i32 0, i32 5
  %34 = getelementptr inbounds nuw %struct.anon.1, ptr %33, i32 0, i32 0
  %35 = load ptr, ptr %34, align 8, !tbaa !31
  call void @EVP_SIGNATURE_free(ptr noundef %35)
  %36 = load ptr, ptr %2, align 8, !tbaa !18
  %37 = getelementptr inbounds nuw %struct.evp_pkey_ctx_st, ptr %36, i32 0, i32 5
  %38 = getelementptr inbounds nuw %struct.anon.1, ptr %37, i32 0, i32 1
  store ptr null, ptr %38, align 8, !tbaa !31
  %39 = load ptr, ptr %2, align 8, !tbaa !18
  %40 = getelementptr inbounds nuw %struct.evp_pkey_ctx_st, ptr %39, i32 0, i32 5
  %41 = getelementptr inbounds nuw %struct.anon.1, ptr %40, i32 0, i32 0
  store ptr null, ptr %41, align 8, !tbaa !31
  br label %192

42:                                               ; preds = %1
  %43 = load ptr, ptr %2, align 8, !tbaa !18
  %44 = getelementptr inbounds nuw %struct.evp_pkey_ctx_st, ptr %43, i32 0, i32 0
  %45 = load i32, ptr %44, align 8, !tbaa !20
  %46 = and i32 %45, 2048
  %47 = icmp ne i32 %46, 0
  br i1 %47, label %48, label %82

48:                                               ; preds = %42
  %49 = load ptr, ptr %2, align 8, !tbaa !18
  %50 = getelementptr inbounds nuw %struct.evp_pkey_ctx_st, ptr %49, i32 0, i32 5
  %51 = getelementptr inbounds nuw %struct.anon.0, ptr %50, i32 0, i32 1
  %52 = load ptr, ptr %51, align 8, !tbaa !31
  %53 = icmp ne ptr %52, null
  br i1 %53, label %54, label %71

54:                                               ; preds = %48
  %55 = load ptr, ptr %2, align 8, !tbaa !18
  %56 = getelementptr inbounds nuw %struct.evp_pkey_ctx_st, ptr %55, i32 0, i32 5
  %57 = getelementptr inbounds nuw %struct.anon.0, ptr %56, i32 0, i32 0
  %58 = load ptr, ptr %57, align 8, !tbaa !31
  %59 = icmp ne ptr %58, null
  br i1 %59, label %60, label %71

60:                                               ; preds = %54
  %61 = load ptr, ptr %2, align 8, !tbaa !18
  %62 = getelementptr inbounds nuw %struct.evp_pkey_ctx_st, ptr %61, i32 0, i32 5
  %63 = getelementptr inbounds nuw %struct.anon.0, ptr %62, i32 0, i32 0
  %64 = load ptr, ptr %63, align 8, !tbaa !31
  %65 = getelementptr inbounds nuw %struct.evp_keyexch_st, ptr %64, i32 0, i32 9
  %66 = load ptr, ptr %65, align 8, !tbaa !61
  %67 = load ptr, ptr %2, align 8, !tbaa !18
  %68 = getelementptr inbounds nuw %struct.evp_pkey_ctx_st, ptr %67, i32 0, i32 5
  %69 = getelementptr inbounds nuw %struct.anon.0, ptr %68, i32 0, i32 1
  %70 = load ptr, ptr %69, align 8, !tbaa !31
  call void %66(ptr noundef %70)
  br label %71

71:                                               ; preds = %60, %54, %48
  %72 = load ptr, ptr %2, align 8, !tbaa !18
  %73 = getelementptr inbounds nuw %struct.evp_pkey_ctx_st, ptr %72, i32 0, i32 5
  %74 = getelementptr inbounds nuw %struct.anon.0, ptr %73, i32 0, i32 0
  %75 = load ptr, ptr %74, align 8, !tbaa !31
  call void @EVP_KEYEXCH_free(ptr noundef %75)
  %76 = load ptr, ptr %2, align 8, !tbaa !18
  %77 = getelementptr inbounds nuw %struct.evp_pkey_ctx_st, ptr %76, i32 0, i32 5
  %78 = getelementptr inbounds nuw %struct.anon.0, ptr %77, i32 0, i32 1
  store ptr null, ptr %78, align 8, !tbaa !31
  %79 = load ptr, ptr %2, align 8, !tbaa !18
  %80 = getelementptr inbounds nuw %struct.evp_pkey_ctx_st, ptr %79, i32 0, i32 5
  %81 = getelementptr inbounds nuw %struct.anon.0, ptr %80, i32 0, i32 0
  store ptr null, ptr %81, align 8, !tbaa !31
  br label %191

82:                                               ; preds = %42
  %83 = load ptr, ptr %2, align 8, !tbaa !18
  %84 = getelementptr inbounds nuw %struct.evp_pkey_ctx_st, ptr %83, i32 0, i32 0
  %85 = load i32, ptr %84, align 8, !tbaa !20
  %86 = and i32 %85, 12288
  %87 = icmp ne i32 %86, 0
  br i1 %87, label %88, label %122

88:                                               ; preds = %82
  %89 = load ptr, ptr %2, align 8, !tbaa !18
  %90 = getelementptr inbounds nuw %struct.evp_pkey_ctx_st, ptr %89, i32 0, i32 5
  %91 = getelementptr inbounds nuw %struct.anon.3, ptr %90, i32 0, i32 1
  %92 = load ptr, ptr %91, align 8, !tbaa !31
  %93 = icmp ne ptr %92, null
  br i1 %93, label %94, label %111

94:                                               ; preds = %88
  %95 = load ptr, ptr %2, align 8, !tbaa !18
  %96 = getelementptr inbounds nuw %struct.evp_pkey_ctx_st, ptr %95, i32 0, i32 5
  %97 = getelementptr inbounds nuw %struct.anon.3, ptr %96, i32 0, i32 0
  %98 = load ptr, ptr %97, align 8, !tbaa !31
  %99 = icmp ne ptr %98, null
  br i1 %99, label %100, label %111

100:                                              ; preds = %94
  %101 = load ptr, ptr %2, align 8, !tbaa !18
  %102 = getelementptr inbounds nuw %struct.evp_pkey_ctx_st, ptr %101, i32 0, i32 5
  %103 = getelementptr inbounds nuw %struct.anon.3, ptr %102, i32 0, i32 0
  %104 = load ptr, ptr %103, align 8, !tbaa !31
  %105 = getelementptr inbounds nuw %struct.evp_kem_st, ptr %104, i32 0, i32 10
  %106 = load ptr, ptr %105, align 8, !tbaa !63
  %107 = load ptr, ptr %2, align 8, !tbaa !18
  %108 = getelementptr inbounds nuw %struct.evp_pkey_ctx_st, ptr %107, i32 0, i32 5
  %109 = getelementptr inbounds nuw %struct.anon.3, ptr %108, i32 0, i32 1
  %110 = load ptr, ptr %109, align 8, !tbaa !31
  call void %106(ptr noundef %110)
  br label %111

111:                                              ; preds = %100, %94, %88
  %112 = load ptr, ptr %2, align 8, !tbaa !18
  %113 = getelementptr inbounds nuw %struct.evp_pkey_ctx_st, ptr %112, i32 0, i32 5
  %114 = getelementptr inbounds nuw %struct.anon.3, ptr %113, i32 0, i32 0
  %115 = load ptr, ptr %114, align 8, !tbaa !31
  call void @EVP_KEM_free(ptr noundef %115)
  %116 = load ptr, ptr %2, align 8, !tbaa !18
  %117 = getelementptr inbounds nuw %struct.evp_pkey_ctx_st, ptr %116, i32 0, i32 5
  %118 = getelementptr inbounds nuw %struct.anon.3, ptr %117, i32 0, i32 1
  store ptr null, ptr %118, align 8, !tbaa !31
  %119 = load ptr, ptr %2, align 8, !tbaa !18
  %120 = getelementptr inbounds nuw %struct.evp_pkey_ctx_st, ptr %119, i32 0, i32 5
  %121 = getelementptr inbounds nuw %struct.anon.3, ptr %120, i32 0, i32 0
  store ptr null, ptr %121, align 8, !tbaa !31
  br label %190

122:                                              ; preds = %82
  %123 = load ptr, ptr %2, align 8, !tbaa !18
  %124 = getelementptr inbounds nuw %struct.evp_pkey_ctx_st, ptr %123, i32 0, i32 0
  %125 = load i32, ptr %124, align 8, !tbaa !20
  %126 = and i32 %125, 1536
  %127 = icmp ne i32 %126, 0
  br i1 %127, label %128, label %162

128:                                              ; preds = %122
  %129 = load ptr, ptr %2, align 8, !tbaa !18
  %130 = getelementptr inbounds nuw %struct.evp_pkey_ctx_st, ptr %129, i32 0, i32 5
  %131 = getelementptr inbounds nuw %struct.anon.2, ptr %130, i32 0, i32 1
  %132 = load ptr, ptr %131, align 8, !tbaa !31
  %133 = icmp ne ptr %132, null
  br i1 %133, label %134, label %151

134:                                              ; preds = %128
  %135 = load ptr, ptr %2, align 8, !tbaa !18
  %136 = getelementptr inbounds nuw %struct.evp_pkey_ctx_st, ptr %135, i32 0, i32 5
  %137 = getelementptr inbounds nuw %struct.anon.2, ptr %136, i32 0, i32 0
  %138 = load ptr, ptr %137, align 8, !tbaa !31
  %139 = icmp ne ptr %138, null
  br i1 %139, label %140, label %151

140:                                              ; preds = %134
  %141 = load ptr, ptr %2, align 8, !tbaa !18
  %142 = getelementptr inbounds nuw %struct.evp_pkey_ctx_st, ptr %141, i32 0, i32 5
  %143 = getelementptr inbounds nuw %struct.anon.2, ptr %142, i32 0, i32 0
  %144 = load ptr, ptr %143, align 8, !tbaa !31
  %145 = getelementptr inbounds nuw %struct.evp_asym_cipher_st, ptr %144, i32 0, i32 10
  %146 = load ptr, ptr %145, align 8, !tbaa !65
  %147 = load ptr, ptr %2, align 8, !tbaa !18
  %148 = getelementptr inbounds nuw %struct.evp_pkey_ctx_st, ptr %147, i32 0, i32 5
  %149 = getelementptr inbounds nuw %struct.anon.2, ptr %148, i32 0, i32 1
  %150 = load ptr, ptr %149, align 8, !tbaa !31
  call void %146(ptr noundef %150)
  br label %151

151:                                              ; preds = %140, %134, %128
  %152 = load ptr, ptr %2, align 8, !tbaa !18
  %153 = getelementptr inbounds nuw %struct.evp_pkey_ctx_st, ptr %152, i32 0, i32 5
  %154 = getelementptr inbounds nuw %struct.anon.2, ptr %153, i32 0, i32 0
  %155 = load ptr, ptr %154, align 8, !tbaa !31
  call void @EVP_ASYM_CIPHER_free(ptr noundef %155)
  %156 = load ptr, ptr %2, align 8, !tbaa !18
  %157 = getelementptr inbounds nuw %struct.evp_pkey_ctx_st, ptr %156, i32 0, i32 5
  %158 = getelementptr inbounds nuw %struct.anon.2, ptr %157, i32 0, i32 1
  store ptr null, ptr %158, align 8, !tbaa !31
  %159 = load ptr, ptr %2, align 8, !tbaa !18
  %160 = getelementptr inbounds nuw %struct.evp_pkey_ctx_st, ptr %159, i32 0, i32 5
  %161 = getelementptr inbounds nuw %struct.anon.2, ptr %160, i32 0, i32 0
  store ptr null, ptr %161, align 8, !tbaa !31
  br label %189

162:                                              ; preds = %122
  %163 = load ptr, ptr %2, align 8, !tbaa !18
  %164 = getelementptr inbounds nuw %struct.evp_pkey_ctx_st, ptr %163, i32 0, i32 0
  %165 = load i32, ptr %164, align 8, !tbaa !20
  %166 = and i32 %165, 6
  %167 = icmp ne i32 %166, 0
  br i1 %167, label %168, label %188

168:                                              ; preds = %162
  %169 = load ptr, ptr %2, align 8, !tbaa !18
  %170 = getelementptr inbounds nuw %struct.evp_pkey_ctx_st, ptr %169, i32 0, i32 5
  %171 = getelementptr inbounds nuw %struct.anon, ptr %170, i32 0, i32 0
  %172 = load ptr, ptr %171, align 8, !tbaa !31
  %173 = icmp ne ptr %172, null
  br i1 %173, label %174, label %187

174:                                              ; preds = %168
  %175 = load ptr, ptr %2, align 8, !tbaa !18
  %176 = getelementptr inbounds nuw %struct.evp_pkey_ctx_st, ptr %175, i32 0, i32 4
  %177 = load ptr, ptr %176, align 8, !tbaa !52
  %178 = icmp ne ptr %177, null
  br i1 %178, label %179, label %187

179:                                              ; preds = %174
  %180 = load ptr, ptr %2, align 8, !tbaa !18
  %181 = getelementptr inbounds nuw %struct.evp_pkey_ctx_st, ptr %180, i32 0, i32 4
  %182 = load ptr, ptr %181, align 8, !tbaa !52
  %183 = load ptr, ptr %2, align 8, !tbaa !18
  %184 = getelementptr inbounds nuw %struct.evp_pkey_ctx_st, ptr %183, i32 0, i32 5
  %185 = getelementptr inbounds nuw %struct.anon, ptr %184, i32 0, i32 0
  %186 = load ptr, ptr %185, align 8, !tbaa !31
  call void @evp_keymgmt_gen_cleanup(ptr noundef %182, ptr noundef %186)
  br label %187

187:                                              ; preds = %179, %174, %168
  br label %188

188:                                              ; preds = %187, %162
  br label %189

189:                                              ; preds = %188, %151
  br label %190

190:                                              ; preds = %189, %111
  br label %191

191:                                              ; preds = %190, %71
  br label %192

192:                                              ; preds = %191, %31
  ret void
}