; Function Attrs: nounwind uwtable
define void @evp_pkey_ctx_free_old_ops(ptr noundef captures(none) %0) local_unnamed_addr #0 {
  %2 = load i32, ptr %0, align 8, !tbaa !15
  %3 = and i32 %2, 49648
  %.not = icmp eq i32 %3, 0
  br i1 %.not, label %14, label %4

4:                                                ; preds = %1
  %5 = getelementptr inbounds nuw i8, ptr %0, i64 40
  %6 = getelementptr inbounds nuw i8, ptr %0, i64 48
  %7 = load ptr, ptr %6, align 8, !tbaa !26
  %.not58 = icmp eq ptr %7, null
  %.pre60 = load ptr, ptr %5, align 8, !tbaa !26
  br i1 %.not58, label %12, label %8

8:                                                ; preds = %4
  %.not59 = icmp eq ptr %.pre60, null
  br i1 %.not59, label %12, label %9

9:                                                ; preds = %8
  %10 = getelementptr inbounds nuw i8, ptr %.pre60, i64 208
  %11 = load ptr, ptr %10, align 8, !tbaa !49
  tail call void %11(ptr noundef nonnull %7) #10
  %.pre = load ptr, ptr %5, align 8, !tbaa !26
  br label %12

12:                                               ; preds = %9, %8, %4
  %13 = phi ptr [ %.pre, %9 ], [ null, %8 ], [ %.pre60, %4 ]
  tail call void @EVP_SIGNATURE_free(ptr noundef %13) #10
  tail call void @llvm.memset.p0.i64(ptr noundef nonnull align 8 dereferenceable(16) %5, i8 0, i64 16, i1 false)
  br label %59

14:                                               ; preds = %1
  %15 = and i32 %2, 2048
  %.not46 = icmp eq i32 %15, 0
  br i1 %.not46, label %26, label %16

16:                                               ; preds = %14
  %17 = getelementptr inbounds nuw i8, ptr %0, i64 40
  %18 = getelementptr inbounds nuw i8, ptr %0, i64 48
  %19 = load ptr, ptr %18, align 8, !tbaa !26
  %.not56 = icmp eq ptr %19, null
  %.pre62 = load ptr, ptr %17, align 8, !tbaa !26
  br i1 %.not56, label %24, label %20

20:                                               ; preds = %16
  %.not57 = icmp eq ptr %.pre62, null
  br i1 %.not57, label %24, label %21

21:                                               ; preds = %20
  %22 = getelementptr inbounds nuw i8, ptr %.pre62, i64 72
  %23 = load ptr, ptr %22, align 8, !tbaa !52
  tail call void %23(ptr noundef nonnull %19) #10
  %.pre61 = load ptr, ptr %17, align 8, !tbaa !26
  br label %24

24:                                               ; preds = %21, %20, %16
  %25 = phi ptr [ %.pre61, %21 ], [ null, %20 ], [ %.pre62, %16 ]
  tail call void @EVP_KEYEXCH_free(ptr noundef %25) #10
  tail call void @llvm.memset.p0.i64(ptr noundef nonnull align 8 dereferenceable(16) %17, i8 0, i64 16, i1 false)
  br label %59

26:                                               ; preds = %14
  %27 = and i32 %2, 12288
  %.not47 = icmp eq i32 %27, 0
  br i1 %.not47, label %38, label %28

28:                                               ; preds = %26
  %29 = getelementptr inbounds nuw i8, ptr %0, i64 40
  %30 = getelementptr inbounds nuw i8, ptr %0, i64 48
  %31 = load ptr, ptr %30, align 8, !tbaa !26
  %.not54 = icmp eq ptr %31, null
  %.pre64 = load ptr, ptr %29, align 8, !tbaa !26
  br i1 %.not54, label %36, label %32

32:                                               ; preds = %28
  %.not55 = icmp eq ptr %.pre64, null
  br i1 %.not55, label %36, label %33

33:                                               ; preds = %32
  %34 = getelementptr inbounds nuw i8, ptr %.pre64, i64 80
  %35 = load ptr, ptr %34, align 8, !tbaa !54
  tail call void %35(ptr noundef nonnull %31) #10
  %.pre63 = load ptr, ptr %29, align 8, !tbaa !26
  br label %36

36:                                               ; preds = %33, %32, %28
  %37 = phi ptr [ %.pre63, %33 ], [ null, %32 ], [ %.pre64, %28 ]
  tail call void @EVP_KEM_free(ptr noundef %37) #10
  tail call void @llvm.memset.p0.i64(ptr noundef nonnull align 8 dereferenceable(16) %29, i8 0, i64 16, i1 false)
  br label %59

38:                                               ; preds = %26
  %39 = and i32 %2, 1536
  %.not48 = icmp eq i32 %39, 0
  br i1 %.not48, label %50, label %40

40:                                               ; preds = %38
  %41 = getelementptr inbounds nuw i8, ptr %0, i64 40
  %42 = getelementptr inbounds nuw i8, ptr %0, i64 48
  %43 = load ptr, ptr %42, align 8, !tbaa !26
  %.not52 = icmp eq ptr %43, null
  %.pre66 = load ptr, ptr %41, align 8, !tbaa !26
  br i1 %.not52, label %48, label %44

44:                                               ; preds = %40
  %.not53 = icmp eq ptr %.pre66, null
  br i1 %.not53, label %48, label %45

45:                                               ; preds = %44
  %46 = getelementptr inbounds nuw i8, ptr %.pre66, i64 80
  %47 = load ptr, ptr %46, align 8, !tbaa !56
  tail call void %47(ptr noundef nonnull %43) #10
  %.pre65 = load ptr, ptr %41, align 8, !tbaa !26
  br label %48

48:                                               ; preds = %45, %44, %40
  %49 = phi ptr [ %.pre65, %45 ], [ null, %44 ], [ %.pre66, %40 ]
  tail call void @EVP_ASYM_CIPHER_free(ptr noundef %49) #10
  tail call void @llvm.memset.p0.i64(ptr noundef nonnull align 8 dereferenceable(16) %41, i8 0, i64 16, i1 false)
  br label %59

50:                                               ; preds = %38
  %51 = and i32 %2, 6
  %.not49 = icmp eq i32 %51, 0
  br i1 %.not49, label %59, label %52

52:                                               ; preds = %50
  %53 = getelementptr inbounds nuw i8, ptr %0, i64 40
  %54 = load ptr, ptr %53, align 8, !tbaa !26
  %.not50 = icmp eq ptr %54, null
  br i1 %.not50, label %59, label %55

55:                                               ; preds = %52
  %56 = getelementptr inbounds nuw i8, ptr %0, i64 32
  %57 = load ptr, ptr %56, align 8, !tbaa !43
  %.not51 = icmp eq ptr %57, null
  br i1 %.not51, label %59, label %58

58:                                               ; preds = %55
  tail call void @evp_keymgmt_gen_cleanup(ptr noundef nonnull %57, ptr noundef nonnull %54) #10
  br label %59

59:                                               ; preds = %24, %48, %52, %55, %58, %50, %36, %12
  ret void
}